ccopy_reg
_reconstructor
p0
(csklearn.neighbors.regression
KNeighborsRegressor
p1
c__builtin__
object
p2
Ntp3
Rp4
(dp5
S'n_neighbors'
p6
I5
sS'n_jobs'
p7
I1
sS'algorithm'
p8
S'auto'
p9
sS'metric'
p10
S'minkowski'
p11
sS'metric_params'
p12
NsS'p'
p13
I2
sS'radius'
p14
NsS'leaf_size'
p15
I30
sS'_fit_method'
p16
NsS'weights'
p17
S'uniform'
p18
sS'_tree'
p19
NsS'_fit_X'
p20
Nsb.